; Function Attrs: mustprogress uwtable
define noundef ptr @_ZN5folly4test21DeterministicSchedule18getCurrentScheduleEv() local_unnamed_addr #7 align 2 {
  %1 = tail call align 8 ptr @llvm.threadlocal.address.p0(ptr align 8 @_ZZN5folly20SingletonThreadLocalINS_4test12_GLOBAL__N_114PerThreadStateENS_6detail10DefaultTagENS4_11DefaultMakeIS3_EEvE3getEvE5cache)
  %2 = load ptr, ptr %1, align 8, !tbaa !43
  %.not.i = icmp eq ptr %2, null
  br i1 %.not.i, label %3, label %_ZN5folly20SingletonThreadLocalINS_4test12_GLOBAL__N_114PerThreadStateENS_6detail10DefaultTagENS4_11DefaultMakeIS3_EEvE3getEv.exit, !prof !45

3:                                                ; preds = %0
  %4 = tail call fastcc noundef nonnull align 8 dereferenceable(168) ptr @_ZN5folly20SingletonThreadLocalINS_4test12_GLOBAL__N_114PerThreadStateENS_6detail10DefaultTagENS4_11DefaultMakeIS3_EEvE7getSlowERNS4_25SingletonThreadLocalState10LocalCacheE(ptr noundef nonnull align 8 dereferenceable(8) %1)
  br label %_ZN5folly20SingletonThreadLocalINS_4test12_GLOBAL__N_114PerThreadStateENS_6detail10DefaultTagENS4_11DefaultMakeIS3_EEvE3getEv.exit

_ZN5folly20SingletonThreadLocalINS_4test12_GLOBAL__N_114PerThreadStateENS_6detail10DefaultTagENS4_11DefaultMakeIS3_EEvE3getEv.exit: ; preds = %0, %3
  %5 = phi ptr [ %4, %3 ], [ %2, %0 ]
  %6 = getelementptr inbounds nuw i8, ptr %5, i64 8
  %7 = load ptr, ptr %6, align 8, !tbaa !46
  ret ptr %7
}